; Function Attrs: mustprogress nounwind uwtable
define noundef nonnull align 8 dereferenceable(8) ptr @_ZN3gmx32KeyValueTreeTransformRulesScopedaSEOS0_(ptr noundef nonnull returned align 8 dereferenceable(8) %0, ptr nocapture noundef nonnull align 8 dereferenceable(8) %1) local_unnamed_addr #6 align 2 personality ptr @__gxx_personality_v0 {
  %3 = load ptr, ptr %1, align 8
  store ptr null, ptr %1, align 8
  %4 = load ptr, ptr %0, align 8
  store ptr %3, ptr %0, align 8
  %.not.i.i.i.i = icmp eq ptr %4, null
  br i1 %.not.i.i.i.i, label %_ZNSt10unique_ptrIN3gmx32KeyValueTreeTransformRulesScoped4ImplESt14default_deleteIS2_EEaSEOS5_.exit, label %_ZNKSt14default_deleteIN3gmx32KeyValueTreeTransformRulesScoped4ImplEEclEPS2_.exit.i.i.i.i

_ZNKSt14default_deleteIN3gmx32KeyValueTreeTransformRulesScoped4ImplEEclEPS2_.exit.i.i.i.i: ; preds = %2
  %5 = load ptr, ptr %4, align 8
  %6 = getelementptr inbounds i8, ptr %5, i64 24
  %7 = load ptr, ptr %6, align 8
  tail call void %7(ptr noundef nonnull align 8 dereferenceable(40) %4) #26
  br label %_ZNSt10unique_ptrIN3gmx32KeyValueTreeTransformRulesScoped4ImplESt14default_deleteIS2_EEaSEOS5_.exit

_ZNSt10unique_ptrIN3gmx32KeyValueTreeTransformRulesScoped4ImplESt14default_deleteIS2_EEaSEOS5_.exit: ; preds = %2, %_ZNKSt14default_deleteIN3gmx32KeyValueTreeTransformRulesScoped4ImplEEclEPS2_.exit.i.i.i.i
  ret ptr %0
}